; Function Attrs: nounwind uwtable
define void @Spl_ManLutFanouts_rec(ptr noundef readonly captures(none) %0, i32 noundef %1, ptr noundef captures(none) %2, ptr noundef readonly captures(none) %3, ptr noundef readonly captures(none) %4) local_unnamed_addr #0 {
  %6 = getelementptr i8, ptr %3, i64 8
  %.val23 = load ptr, ptr %6, align 8, !tbaa !50
  %7 = ashr i32 %1, 5
  %8 = sext i32 %7 to i64
  %9 = getelementptr inbounds i32, ptr %.val23, i64 %8
  %10 = load i32, ptr %9, align 4, !tbaa !34
  %11 = and i32 %1, 31
  %12 = shl nuw i32 1, %11
  %13 = and i32 %10, %12
  %.not = icmp eq i32 %13, 0
  br i1 %.not, label %14, label %.critedge

14:                                               ; preds = %5
  %15 = getelementptr i8, ptr %4, i64 8
  %.val = load ptr, ptr %15, align 8, !tbaa !50
  %16 = getelementptr inbounds i32, ptr %.val, i64 %8
  %17 = load i32, ptr %16, align 4, !tbaa !34
  %18 = and i32 %17, %12
  %.not21 = icmp eq i32 %18, 0
  br i1 %.not21, label %19, label %.critedge

19:                                               ; preds = %14
  %20 = getelementptr i8, ptr %0, i64 272
  %.val24 = load ptr, ptr %20, align 8, !tbaa !68
  %21 = getelementptr i8, ptr %.val24, i64 8
  %.val24.val = load ptr, ptr %21, align 8, !tbaa !30
  %22 = sext i32 %1 to i64
  %23 = getelementptr %struct.Vec_Int_t_, ptr %.val24.val, i64 %22, i32 1
  %.val1.i = load i32, ptr %23, align 4, !tbaa !35
  %.not27 = icmp eq i32 %.val1.i, 0
  br i1 %.not27, label %.preheader, label %30

.preheader:                                       ; preds = %19
  %24 = getelementptr i8, ptr %0, i64 248
  %.val2528 = load ptr, ptr %24, align 8, !tbaa !81
  %25 = getelementptr i8, ptr %.val2528, i64 8
  %.val25.val29 = load ptr, ptr %25, align 8, !tbaa !33
  %26 = getelementptr inbounds i32, ptr %.val25.val29, i64 %22
  %27 = load i32, ptr %26, align 4, !tbaa !34
  %28 = icmp sgt i32 %27, 0
  br i1 %28, label %.lr.ph, label %.critedge

.lr.ph:                                           ; preds = %.preheader
  %29 = getelementptr i8, ptr %0, i64 256
  br label %63

30:                                               ; preds = %19
  %31 = or i32 %17, %12
  store i32 %31, ptr %16, align 4, !tbaa !34
  %32 = getelementptr inbounds nuw i8, ptr %2, i64 4
  %33 = load i32, ptr %32, align 4, !tbaa !35
  %34 = load i32, ptr %2, align 8, !tbaa !36
  %35 = icmp eq i32 %33, %34
  br i1 %35, label %36, label %.Vec_IntGrow.exit10_crit_edge.i

.Vec_IntGrow.exit10_crit_edge.i:                  ; preds = %30
  %.phi.trans.insert.i = getelementptr inbounds nuw i8, ptr %2, i64 8
  %.pre.i = load ptr, ptr %.phi.trans.insert.i, align 8, !tbaa !33
  br label %Vec_IntPush.exit

36:                                               ; preds = %30
  %37 = icmp slt i32 %33, 16
  br i1 %37, label %38, label %46

38:                                               ; preds = %36
  %39 = getelementptr inbounds nuw i8, ptr %2, i64 8
  %40 = load ptr, ptr %39, align 8, !tbaa !33
  %.not9.i.i = icmp eq ptr %40, null
  br i1 %.not9.i.i, label %43, label %41

41:                                               ; preds = %38
  %42 = tail call dereferenceable_or_null(64) ptr @realloc(ptr noundef nonnull %40, i64 noundef 64) #17
  br label %Vec_IntGrow.exit.i

43:                                               ; preds = %38
  %44 = tail call noalias dereferenceable_or_null(64) ptr @malloc(i64 noundef 64) #15
  br label %Vec_IntGrow.exit.i

Vec_IntGrow.exit.i:                               ; preds = %43, %41
  %45 = phi ptr [ %42, %41 ], [ %44, %43 ]
  store ptr %45, ptr %39, align 8, !tbaa !33
  store i32 16, ptr %2, align 8, !tbaa !36
  br label %Vec_IntPush.exit

46:                                               ; preds = %36
  %47 = shl nuw nsw i32 %33, 1
  %48 = getelementptr inbounds nuw i8, ptr %2, i64 8
  %49 = load ptr, ptr %48, align 8, !tbaa !33
  %.not9.i9.i = icmp eq ptr %49, null
  %50 = zext nneg i32 %47 to i64
  %51 = shl nuw nsw i64 %50, 2
  br i1 %.not9.i9.i, label %54, label %52

52:                                               ; preds = %46
  %53 = tail call ptr @realloc(ptr noundef nonnull %49, i64 noundef %51) #17
  br label %56

54:                                               ; preds = %46
  %55 = tail call noalias ptr @malloc(i64 noundef %51) #15
  br label %56

56:                                               ; preds = %54, %52
  %57 = phi ptr [ %53, %52 ], [ %55, %54 ]
  store ptr %57, ptr %48, align 8, !tbaa !33
  store i32 %47, ptr %2, align 8, !tbaa !36
  br label %Vec_IntPush.exit

Vec_IntPush.exit:                                 ; preds = %.Vec_IntGrow.exit10_crit_edge.i, %Vec_IntGrow.exit.i, %56
  %58 = phi ptr [ %.pre.i, %.Vec_IntGrow.exit10_crit_edge.i ], [ %57, %56 ], [ %45, %Vec_IntGrow.exit.i ]
  %59 = load i32, ptr %32, align 4, !tbaa !35
  %60 = add nsw i32 %59, 1
  store i32 %60, ptr %32, align 4, !tbaa !35
  %61 = sext i32 %59 to i64
  %62 = getelementptr inbounds i32, ptr %58, i64 %61
  store i32 %1, ptr %62, align 4, !tbaa !34
  br label %.critedge

63:                                               ; preds = %.lr.ph, %63
  %.030 = phi i32 [ 0, %.lr.ph ], [ %71, %63 ]
  %.val26 = load ptr, ptr %29, align 8, !tbaa !82
  %64 = getelementptr i8, ptr %.val26, i64 8
  %.val26.val = load ptr, ptr %64, align 8, !tbaa !33
  %65 = getelementptr inbounds i32, ptr %.val26.val, i64 %22
  %66 = load i32, ptr %65, align 4, !tbaa !34
  %67 = add nsw i32 %66, %.030
  %68 = sext i32 %67 to i64
  %69 = getelementptr inbounds i32, ptr %.val26.val, i64 %68
  %70 = load i32, ptr %69, align 4, !tbaa !34
  tail call void @Spl_ManLutFanouts_rec(ptr noundef nonnull %0, i32 noundef %70, ptr noundef %2, ptr noundef %3, ptr noundef %4)
  %71 = add nuw nsw i32 %.030, 1
  %.val25 = load ptr, ptr %24, align 8, !tbaa !81
  %72 = getelementptr i8, ptr %.val25, i64 8
  %.val25.val = load ptr, ptr %72, align 8, !tbaa !33
  %73 = getelementptr inbounds i32, ptr %.val25.val, i64 %22
  %74 = load i32, ptr %73, align 4, !tbaa !34
  %75 = icmp slt i32 %71, %74
  br i1 %75, label %63, label %.critedge, !llvm.loop !83

.critedge:                                        ; preds = %63, %.preheader, %5, %14, %Vec_IntPush.exit
  ret void
}